 SCx64

 Timestamp is 6675f3d6 (Sat Jun 22 00:42:46 2024)

 Preferred load address is 0000000140000000

 Start         Length     Name                   Class
 0001:00000000 00000aa0H .text$mn                CODE
 0001:00000aa0 00000dc0H .text$mn$cpp            CODE
 0001:00001860 0000014cH .text$mn$cpp$s          CODE
 0001:000019ac 00000008H .text$nm                CODE
 0001:000019b4 000004acH .text$zz                CODE
 0001:00001e60 00000077H .text$zz$s              CODE
 0002:00000000 00000038H .rdata                  DATA
 0002:00000038 00000030H .rdata$voltmd           DATA
 0002:00000068 00000068H .rdata$zzzdbg           DATA
 0002:000000d0 000000f8H .xdata                  DATA
 0002:000001c8 00000000H .edata                  DATA
 0003:00000000 00000000H .data                   DATA
 0003:00000000 00000004H .bss                    DATA
 0004:00000000 000000a8H .pdata                  DATA

  Address         Publics by Value              Rva+Base               Lib:Object

 0000:00000000       __AbsoluteZero             0000000000000000     <absolute>
 0000:00000000       __arm64x_extra_rfe_table   0000000000000000     <absolute>
 0000:00000000       __arm64x_extra_rfe_table_size 0000000000000000     <absolute>
 0000:00000000       __arm64x_native_entrypoint 0000000000000000     <absolute>
 0000:00000000       __arm64x_redirection_metadata 0000000000000000     <absolute>
 0000:00000000       __arm64x_redirection_metadata_count 0000000000000000     <absolute>
 0000:00000000       __dynamic_value_reloc_table 0000000000000000     <absolute>
 0000:00000000       __enclave_config           0000000000000000     <absolute>
 0000:00000000       __guard_check_icall_a64n_fptr 0000000000000000     <absolute>
 0000:00000000       __guard_eh_cont_count      0000000000000000     <absolute>
 0000:00000000       __guard_eh_cont_table      0000000000000000     <absolute>
 0000:00000000       __guard_fids_count         0000000000000000     <absolute>
 0000:00000000       __guard_fids_table         0000000000000000     <absolute>
 0000:00000000       __guard_flags              0000000000000000     <absolute>
 0000:00000000       __guard_iat_count          0000000000000000     <absolute>
 0000:00000000       __guard_iat_table          0000000000000000     <absolute>
 0000:00000000       __guard_longjmp_count      0000000000000000     <absolute>
 0000:00000000       __guard_longjmp_table      0000000000000000     <absolute>
 0000:00000000       __hybrid_auxiliary_delayload_iat 0000000000000000     <absolute>
 0000:00000000       __hybrid_auxiliary_delayload_iat_copy 0000000000000000     <absolute>
 0000:00000000       __hybrid_auxiliary_iat     0000000000000000     <absolute>
 0000:00000000       __hybrid_auxiliary_iat_copy 0000000000000000     <absolute>
 0000:00000000       __hybrid_code_map          0000000000000000     <absolute>
 0000:00000000       __hybrid_code_map_count    0000000000000000     <absolute>
 0000:00000000       __x64_code_ranges_to_entry_points 0000000000000000     <absolute>
 0000:00000000       __x64_code_ranges_to_entry_points_count 0000000000000000     <absolute>
 0000:00000000       __ImageBase                0000000140000000     <linker-defined>
 0001:00000000       epASM                      0000000140001000 f   x64.obj
 0001:000000b8       DbgPrint                   00000001400010b8 f   x64.obj
 0001:000000e1       wcstoul                    00000001400010e1 f   x64.obj
 0001:00000108       memset                     0000000140001108 f   x64.obj
 0001:0000012f       memcpy                     000000014000112f f   x64.obj
 0001:0000014f       LdrGetProcedureAddress     000000014000114f f   x64.obj
 0001:0000017f       LdrLoadDll                 000000014000117f f   x64.obj
 0001:000001a3       LdrUnloadDll               00000001400011a3 f   x64.obj
 0001:000001cd       LdrGetDllHandle            00000001400011cd f   x64.obj
 0001:000001f8       LdrProcessRelocationBlock  00000001400011f8 f   x64.obj
 0001:00000232       NtCreateSection            0000000140001232 f   x64.obj
 0001:00000260       ZwMapViewOfSection         0000000140001260 f   x64.obj
 0001:00000293       ZwUnmapViewOfSection       0000000140001293 f   x64.obj
 0001:000002c5       ZwProtectVirtualMemory     00000001400012c5 f   x64.obj
 0001:000002f7       NtOpenFile                 00000001400012f7 f   x64.obj
 0001:0000031b       NtQueryDirectoryFile       000000014000131b f   x64.obj
 0001:0000034d       NtClose                    000000014000134d f   x64.obj
 0001:00000370       NtFreeVirtualMemory        0000000140001370 f   x64.obj
 0001:000003a4       NtQueryInformationProcess  00000001400013a4 f   x64.obj
 0001:000003da       ZwQueryInformationThread   00000001400013da f   x64.obj
 0001:00000411       ZwSetInformationThread     0000000140001411 f   x64.obj
 0001:00000447       ZwSetContextThread         0000000140001447 f   x64.obj
 0001:00000473       ZwGetContextThread         0000000140001473 f   x64.obj
 0001:000004a3       ZwResumeThread             00000001400014a3 f   x64.obj
 0001:000004cf       ZwReadVirtualMemory        00000001400014cf f   x64.obj
 0001:000004fc       ZwWriteVirtualMemory       00000001400014fc f   x64.obj
 0001:0000052d       RtlInitAnsiString          000000014000152d f   x64.obj
 0001:0000055a       RtlInitUnicodeString       000000014000155a f   x64.obj
 0001:0000058d       RtlEqualUnicodeString      000000014000158d f   x64.obj
 0001:000005be       RtlAppendUnicodeStringToString 00000001400015be f   x64.obj
 0001:000005f7       RtlAppendUnicodeToString   00000001400015f7 f   x64.obj
 0001:00000629       RtlGetNtSystemRoot         0000000140001629 f   x64.obj
 0001:0000065b       RtlDosPathNameToNtPathName_U_WithStatus 000000014000165b f   x64.obj
 0001:000006a0       RtlFreeUnicodeString       00000001400016a0 f   x64.obj
 0001:000006d5       RtlAllocateHeap            00000001400016d5 f   x64.obj
 0001:00000700       RtlFreeHeap                0000000140001700 f   x64.obj
 0001:0000072c       RtlImageNtHeaderEx         000000014000172c f   x64.obj
 0001:0000075b       RtlImageNtHeader           000000014000175b f   x64.obj
 0001:00000789       RtlImageDirectoryEntryToData 0000000140001789 f   x64.obj
 0001:000007c5       ExitProcess                00000001400017c5 f   x64.obj
 0001:000007ec       GetProcessHeap             00000001400017ec f   x64.obj
 0001:00000817       GetSystemWow64DirectoryW   0000000140001817 f   x64.obj
 0001:00000849       GetSystemWindowsDirectoryW 0000000140001849 f   x64.obj
 0001:00000883       VirtualProtect             0000000140001883 f   x64.obj
 0001:000008af       VirtualProtectEx           00000001400018af f   x64.obj
 0001:000008d9       TerminateProcess           00000001400018d9 f   x64.obj
 0001:00000909       CreateProcessW             0000000140001909 f   x64.obj
 0001:00000937       WinHttpCloseHandle         0000000140001937 f   x64.obj
 0001:00000963       WinHttpOpen                0000000140001963 f   x64.obj
 0001:0000098c       WinHttpConnect             000000014000198c f   x64.obj
 0001:000009b7       WinHttpOpenRequest         00000001400019b7 f   x64.obj
 0001:000009e3       WinHttpSendRequest         00000001400019e3 f   x64.obj
 0001:00000a13       WinHttpQueryHeaders        0000000140001a13 f   x64.obj
 0001:00000a44       WinHttpReceiveResponse     0000000140001a44 f   x64.obj
 0001:00000a77       WinHttpReadData            0000000140001a77 f   x64.obj
 0001:00000aa0       ?Download@@YAHPEB_W0PEAPEAXPEAK@Z 0000000140001aa0 f   ep.obj
 0001:00000c98       ?DownloadAndExec@@YAXPEB_W0@Z 0000000140001c98 f   ep.obj
 0001:00000d00       ?ep@@YAXPEAU_PEB@@@Z       0000000140001d00 f   ep.obj
 0001:00000d24       ?ProtectImage@@YAJPEAX0PEAU_IMAGE_NT_HEADERS64@@@Z 0000000140001d24 f   Exec.obj
 0001:00000e18       ?GetWowContext@@YAJPEAXPEAU_CONTEXT@@@Z 0000000140001e18 f   Exec.obj
 0001:00000e3c       ?SetWowContext@@YAJPEAXPEAU_CONTEXT@@@Z 0000000140001e3c f   Exec.obj
 0001:00000e50       ?Exec@@YAHPEAXPEAU_IMAGE_NT_HEADERS64@@PEB_W@Z 0000000140001e50 f   Exec.obj
 0001:00001324       ?GetNtBase@@YAPEAXXZ       0000000140002324 f   GetFuncAddr.obj
 0001:00001340       ?get_hmod@@YAPEAXPEB_W@Z   0000000140002340 f   GetFuncAddr.obj
 0001:0000139c       ?GetFuncAddressEx@@YAPEAXPEAU_IMAGE_DOS_HEADER@@PEBD@Z 000000014000239c f   GetFuncAddr.obj
 0001:000014ec       ?FindNoCfgDll@@YAJKKKPEAPEAX@Z 00000001400024ec f   NoCfg.obj
 0001:00001834       ??3@YAXPEAX_K@Z            0000000140002834 f   stdafx.obj
 0001:00001860       ??_C@_1EM@FHFNBODF@?$AA?1?$AA?$HO?$AAs?$AAg?$AAt?$AAa?$AAt?$AAh?$AAa?$AAm?$AA?1?$AAp?$AAu?$AAt?$AAt@FNODOBFM@ 0000000140002860     ep.obj
 0001:000018b0       ??_C@_1BK@DEAAAFKK@?$AAt?$AAh?$AAe?$AA?4?$AAe?$AAa?$AAr?$AAt?$AAh?$AA?4?$AAl?$AAi@FNODOBFM@ 00000001400028b0     ep.obj
 0001:000018d0       ??_C@_1EM@CKOJHMCM@?$AA?1?$AA?$HO?$AAs?$AAg?$AAt?$AAa?$AAt?$AAh?$AAa?$AAm?$AA?1?$AAp?$AAu?$AAt?$AAt@FNODOBFM@ 00000001400028d0     ep.obj
 0001:00001920       ??_C@_1BM@ENECIFHC@?$AA?2?$AAe?$AAx?$AAp?$AAl?$AAo?$AAr?$AAe?$AAr?$AA?4?$AAe?$AAx?$AAe@FNODOBFM@ 0000000140002920     Exec.obj
 0001:00001940       ??_C@_1CK@JEHFHMMG@?$AA?2?$AAs?$AAy?$AAs?$AAt?$AAe?$AAm?$AAr?$AAo?$AAo?$AAt?$AA?2?$AAs?$AAy?$AAs@FNODOBFM@ 0000000140002940     NoCfg.obj
 0001:00001970       ??_C@_1CK@GMBENNHD@?$AA?2?$AAs?$AAy?$AAs?$AAt?$AAe?$AAm?$AAr?$AAo?$AAo?$AAt?$AA?2?$AAs?$AAy?$AAs@FNODOBFM@ 0000000140002970     NoCfg.obj
 0001:000019a0       ??_C@_1M@HNNPBALB@?$AA?$CK?$AA?4?$AAd?$AAl?$AAl@FNODOBFM@ 00000001400029a0     NoCfg.obj
 0001:000019ac       ?sc_end@@YAPEAXXZ          00000001400029ac f   prepare.obj
 0001:000019b4       ?SaveToFile@@YAJPEB_WPEBXK@Z 00000001400029b4 f   prepare.obj
 0001:00001b10       ?PrepareCode@@YAJPEB_WPEA_K_K@Z 0000000140002b10 f   prepare.obj
 0001:00001c0c       ?ep2@@YAXPEAU_PEB@@@Z      0000000140002c0c f   prepare.obj
 0001:00001e60       ??_C@_0CI@LIOAJGPI@RtlDosPathNameToNtPathName_U_Wi@FNODOBFM@ 0000000140002e60     prepare.obj
 0001:00001e90       ??_C@_0N@KPMLACHP@NtCreateFile@FNODOBFM@ 0000000140002e90     prepare.obj
 0001:00001ea0       ??_C@_0M@NBHOGDOK@NtWriteFile@FNODOBFM@ 0000000140002ea0     prepare.obj
 0001:00001eb0       ??_C@_09ECOADGFO@sprintf_s@FNODOBFM@ 0000000140002eb0     prepare.obj
 0001:00001ec0       ??_C@_0BA@MBBLBAHO@DQ?50?$CF016I64xh?$AN?6@FNODOBFM@ 0000000140002ec0     prepare.obj
 0001:00001ed0       ??_C@_06JBAPAMO@wcschr@FNODOBFM@ 0000000140002ed0     prepare.obj
 0002:00000038       __volatile_metadata        0000000140003038     <linker-defined>
 0003:00000000       __@@_PchSym_@00@UfhvihUsziibUwlxfnvmghUtrgsfyUhxUgnkUcGEUivovzhvUhxcGEUhgwzucOlyq@4B2008FD98C1DD4 0000000140004000     stdafx.obj

 entry point at        0001:00001c0c

 Static symbols

 0001:00000005       common_imp_call            0000000140001005 f   x64.obj
 0001:00000058       ntdll                      0000000140001058 f   x64.obj
 0001:0000006a       kernel32                   000000014000106a f   x64.obj
 0001:00000092       WinHttp                    0000000140001092 f   x64.obj
 0001:00001e38       ??2PE@?L@??ep2@@YAXPEAU_PEB@@@Z@SAPEAX_KK@Z 0000000140002e38 f   prepare.obj
 0002:000000d0       $unwind$?Download@@YAHPEB_W0PEAPEAXPEAK@Z 00000001400030d0     ep.obj
 0002:000000f0       $unwind$?DownloadAndExec@@YAXPEB_W0@Z 00000001400030f0     ep.obj
 0002:000000f8       $unwind$?ep@@YAXPEAU_PEB@@@Z 00000001400030f8     ep.obj
 0002:00000100       $unwind$?ProtectImage@@YAJPEAX0PEAU_IMAGE_NT_HEADERS64@@@Z 0000000140003100     Exec.obj
 0002:00000110       $unwind$?GetWowContext@@YAJPEAXPEAU_CONTEXT@@@Z 0000000140003110     Exec.obj
 0002:00000118       $unwind$?Exec@@YAHPEAXPEAU_IMAGE_NT_HEADERS64@@PEB_W@Z 0000000140003118     Exec.obj
 0002:00000130       $unwind$?get_hmod@@YAPEAXPEB_W@Z 0000000140003130     GetFuncAddr.obj
 0002:00000138       $unwind$?GetFuncAddressEx@@YAPEAXPEAU_IMAGE_DOS_HEADER@@PEBD@Z 0000000140003138     GetFuncAddr.obj
 0002:00000154       $unwind$?FindNoCfgDll@@YAJKKKPEAPEAX@Z 0000000140003154     NoCfg.obj
 0002:00000170       $unwind$?SaveToFile@@YAJPEB_WPEBXK@Z 0000000140003170     prepare.obj
 0002:00000188       $unwind$?PrepareCode@@YAJPEB_WPEA_K_K@Z 0000000140003188     prepare.obj
 0002:000001a4       $unwind$?ep2@@YAXPEAU_PEB@@@Z 00000001400031a4     prepare.obj
 0002:000001c0       $unwind$??2PE@?L@??ep2@@YAXPEAU_PEB@@@Z@SAPEAX_KK@Z 00000001400031c0     prepare.obj
 0002:000001c0       $unwind$??3@YAXPEAX_K@Z    00000001400031c0     stdafx.obj
